target datalayout = "e-m:e-p270:32:32-p271:32:32-p272:64:64-i64:64-i128:128-f80:128-n8:16:32:64-S128"
target triple = "x86_64-pc-linux-gnu"

%struct.FT_ListRec_ = type { ptr, ptr }
%struct.FT_FaceRec_ = type { i64, i64, i64, i64, i64, ptr, ptr, i32, ptr, i32, ptr, %struct.FT_Generic_, %struct.FT_BBox_, i16, i16, i16, i16, i16, i16, i16, i16, ptr, ptr, ptr, ptr, ptr, ptr, %struct.FT_ListRec_, %struct.FT_Generic_, ptr, ptr }
%struct.FT_BBox_ = type { i64, i64, i64, i64 }
%struct.FT_Generic_ = type { ptr, ptr }
%struct.CID_FaceRec_ = type { %struct.FT_FaceRec_, ptr, ptr, %struct.CID_FaceInfoRec_, %struct.PS_FontExtraRec_, ptr, ptr, ptr, ptr }
%struct.CID_FaceInfoRec_ = type { ptr, i64, i32, ptr, ptr, i32, %struct.PS_FontInfoRec_, %struct.FT_BBox_, i64, i32, [16 x i64], i64, i32, i32, i64, i32, ptr, i64 }
%struct.PS_FontInfoRec_ = type { ptr, ptr, ptr, ptr, ptr, i64, i8, i16, i16 }
%struct.PS_FontExtraRec_ = type { i16 }
%struct.CID_FaceDictRec_ = type { %struct.PS_PrivateRec_, i32, i64, i64, i64, i8, i8, %struct.FT_Matrix_, %struct.FT_Vector_, i32, i64, i32 }
%struct.PS_PrivateRec_ = type { i32, i32, i8, i8, i8, i8, [14 x i16], [10 x i16], [14 x i16], [10 x i16], i64, i32, i32, [1 x i16], [1 x i16], i8, i8, i8, i8, [13 x i16], [13 x i16], i64, i64, i64, [2 x i16] }
%struct.FT_Matrix_ = type { i64, i64, i64, i64 }
%struct.FT_Vector_ = type { i64, i64 }
%struct.CID_Parser_ = type { %struct.PS_ParserRec_, ptr, ptr, i64, i64, i64, ptr, i32 }
%struct.PS_ParserRec_ = type { ptr, ptr, ptr, i32, ptr, %struct.PS_Parser_FuncsRec_ }
%struct.PS_Parser_FuncsRec_ = type { ptr, ptr, ptr, ptr, ptr, ptr, ptr, ptr, ptr, ptr, ptr, ptr, ptr }

; Function Attrs: nounwind uwtable
define internal void @parse_expansion_factor(ptr noundef %0, ptr noundef %1) #0 {
  %3 = alloca ptr, align 8
  %4 = alloca ptr, align 8
  %5 = alloca ptr, align 8
  %6 = alloca ptr, align 8
  %7 = alloca ptr, align 8
  store ptr %0, ptr %3, align 8
  store ptr %1, ptr %4, align 8
  %8 = load ptr, ptr %3, align 8
  store ptr %8, ptr %5, align 8
  %9 = load ptr, ptr %4, align 8
  store ptr %9, ptr %6, align 8
  %10 = load ptr, ptr %6, align 8
  %11 = getelementptr inbounds %struct.CID_Parser_, ptr %10, i32 0, i32 7
  %12 = load i32, ptr %11, align 8
  %13 = load ptr, ptr %5, align 8
  %14 = getelementptr inbounds %struct.CID_FaceRec_, ptr %13, i32 0, i32 3
  %15 = getelementptr inbounds %struct.CID_FaceInfoRec_, ptr %14, i32 0, i32 15
  %16 = load i32, ptr %15, align 8
  %17 = icmp ult i32 %12, %16
  br i1 %17, label %18, label %46

18:                                               ; preds = %2
  %19 = load ptr, ptr %5, align 8
  %20 = getelementptr inbounds %struct.CID_FaceRec_, ptr %19, i32 0, i32 3
  %21 = getelementptr inbounds %struct.CID_FaceInfoRec_, ptr %20, i32 0, i32 16
  %22 = load ptr, ptr %21, align 8
  %23 = load ptr, ptr %6, align 8
  %24 = getelementptr inbounds %struct.CID_Parser_, ptr %23, i32 0, i32 7
  %25 = load i32, ptr %24, align 8
  %26 = zext i32 %25 to i64
  %27 = getelementptr inbounds %struct.CID_FaceDictRec_, ptr %22, i64 %26
  store ptr %27, ptr %7, align 8
  %28 = load ptr, ptr %6, align 8
  %29 = getelementptr inbounds %struct.CID_Parser_, ptr %28, i32 0, i32 0
  %30 = getelementptr inbounds %struct.PS_ParserRec_, ptr %29, i32 0, i32 5
  %31 = getelementptr inbounds %struct.PS_Parser_FuncsRec_, ptr %30, i32 0, i32 5
  %32 = load ptr, ptr %31, align 8
  %33 = load ptr, ptr %6, align 8
  %34 = getelementptr inbounds %struct.CID_Parser_, ptr %33, i32 0, i32 0
  %35 = call i64 %32(ptr noundef %34, i32 noundef 0)
  %36 = load ptr, ptr %7, align 8
  %37 = getelementptr inbounds %struct.CID_FaceDictRec_, ptr %36, i32 0, i32 4
  store i64 %35, ptr %37, align 8
  %38 = load ptr, ptr %7, align 8
  %39 = getelementptr inbounds %struct.CID_FaceDictRec_, ptr %38, i32 0, i32 4
  %40 = load i64, ptr %39, align 8
  %41 = load ptr, ptr %7, align 8
  %42 = getelementptr inbounds %struct.CID_FaceDictRec_, ptr %41, i32 0, i32 0
  %43 = getelementptr inbounds %struct.PS_PrivateRec_, ptr %42, i32 0, i32 21
  store i64 %40, ptr %43, align 8
  br label %44

44:                                               ; preds = %18
  br label %45

45:                                               ; preds = %44
  br label %46

46:                                               ; preds = %45, %2
  ret void
}