; Function Attrs: nounwind uwtable
define internal void @parse_expansion_factor(ptr noundef readonly captures(none) %0, ptr noundef %1) #2 {
  %3 = getelementptr inbounds nuw i8, ptr %1, i64 192
  %4 = load i32, ptr %3, align 8
  %5 = getelementptr inbounds nuw i8, ptr %0, i64 568
  %6 = load i32, ptr %5, align 8
  %7 = icmp ult i32 %4, %6
  br i1 %7, label %8, label %18

8:                                                ; preds = %2
  %9 = getelementptr inbounds nuw i8, ptr %0, i64 576
  %10 = load ptr, ptr %9, align 8
  %11 = zext i32 %4 to i64
  %12 = getelementptr inbounds nuw %struct.CID_FaceDictRec_, ptr %10, i64 %11
  %13 = getelementptr inbounds nuw i8, ptr %1, i64 80
  %14 = load ptr, ptr %13, align 8
  %15 = tail call i64 %14(ptr noundef nonnull %1, i32 noundef 0) #13
  %16 = getelementptr inbounds nuw i8, ptr %12, i64 248
  store i64 %15, ptr %16, align 8
  %17 = getelementptr inbounds nuw i8, ptr %12, i64 192
  store i64 %15, ptr %17, align 8
  br label %18

18:                                               ; preds = %8, %2
  ret void
}